target datalayout = "e-m:e-p270:32:32-p271:32:32-p272:64:64-i64:64-i128:128-f80:128-n8:16:32:64-S128"
target triple = "x86_64-pc-linux-gnu"

%struct._zend_executor_globals = type { %struct._zval_struct, %struct._zval_struct, [32 x ptr], ptr, ptr, %struct._zend_array, %struct._zend_array, ptr, i32, i8, %struct._zval_struct, i32, ptr, ptr, ptr, ptr, ptr, ptr, i64, ptr, ptr, i32, ptr, i32, i64, i32, i32, i32, i8, i8, %struct.zend_atomic_bool_s, %struct.zend_atomic_bool_s, ptr, i64, ptr, ptr, %struct._zend_array, %struct._zend_array, i32, i8, %struct._zval_struct, %struct._zval_struct, %struct._zend_stack, %struct._zend_stack, %struct._zend_stack, ptr, i32, i32, i64, ptr, ptr, ptr, %struct._zend_objects_store, %struct._zend_lazy_objects_store, ptr, ptr, ptr, [3 x %struct._zend_op], ptr, i8, i8, i64, i32, i32, ptr, [16 x %struct._HashTableIterator], ptr, %union._zend_function, %struct._zend_op, %struct._zend_array, i64, %struct.zend_get_gc_buffer, ptr, ptr, ptr, i64, i8, i32, ptr, ptr, i64, %struct._zend_call_stack, i64, i64, %struct._zend_strtod_state, [6 x ptr] }
%struct.zend_atomic_bool_s = type { i8 }
%struct._zval_struct = type { %union._zend_value, %union.anon, %union.anon.2 }
%union._zend_value = type { i64 }
%union.anon = type { i32 }
%union.anon.2 = type { i32 }
%struct._zend_stack = type { i32, i32, i32, ptr }
%struct._zend_objects_store = type { ptr, i32, i32, i32 }
%struct._zend_lazy_objects_store = type { %struct._zend_array }
%struct._HashTableIterator = type { ptr, i32, i32 }
%union._zend_function = type { %struct._zend_op_array }
%struct._zend_op_array = type { i8, [3 x i8], i32, ptr, ptr, ptr, i32, i32, ptr, ptr, ptr, ptr, i32, ptr, i32, i32, i32, ptr, ptr, ptr, ptr, ptr, i32, i32, ptr, ptr, ptr, i32, i32, i32, i32, ptr, ptr, [6 x ptr] }
%struct._zend_op = type { ptr, %union._znode_op, %union._znode_op, %union._znode_op, i32, i32, i8, i8, i8, i8 }
%union._znode_op = type { i32 }
%struct._zend_array = type { %struct._zend_refcounted_h, %union.anon.7, i32, %union.anon.9, i32, i32, i32, i32, i64, ptr }
%struct._zend_refcounted_h = type { i32, %union.anon.6 }
%union.anon.6 = type { i32 }
%union.anon.7 = type { i32 }
%union.anon.9 = type { ptr }
%struct.zend_get_gc_buffer = type { ptr, ptr, ptr }
%struct._zend_call_stack = type { ptr, i64 }
%struct._zend_strtod_state = type { [8 x ptr], ptr, ptr }
%struct._zend_string = type { %struct._zend_refcounted_h, i64, i64, [1 x i8] }
%struct._zend_object = type { %struct._zend_refcounted_h, i32, i32, ptr, ptr, ptr, [1 x %struct._zval_struct] }
%struct._pdo_dbh_t = type { ptr, ptr, ptr, ptr, i32, ptr, i64, [6 x i8], i32, i32, i32, ptr, i64, i32, [2 x ptr], ptr, ptr, %struct._zval_struct, ptr, ptr, i32 }
%struct.pdo_dbh_methods = type { ptr, ptr, ptr, ptr, ptr, ptr, ptr, ptr, ptr, ptr, ptr, ptr, ptr, ptr, ptr, ptr, ptr }
%struct._zend_execute_data = type { ptr, ptr, ptr, ptr, %struct._zval_struct, ptr, ptr, ptr, ptr }
%struct._pdo_dbh_object_t = type { ptr, %struct._zend_object }
%struct._zend_class_entry = type { i8, ptr, %union.anon.11, i32, i32, i32, i32, ptr, ptr, ptr, %struct._zend_array, %struct._zend_array, %struct._zend_array, ptr, ptr, ptr, ptr, ptr, ptr, ptr, ptr, ptr, ptr, ptr, ptr, ptr, ptr, ptr, ptr, ptr, ptr, ptr, %union.anon.12, ptr, ptr, ptr, ptr, i32, i32, i32, i32, %union.anon.13, ptr, ptr, ptr, ptr, i32, ptr, ptr, %union.anon.14 }
%union.anon.11 = type { ptr }
%union.anon.12 = type { ptr }
%union.anon.13 = type { ptr }
%union.anon.14 = type { %struct.anon.15 }
%struct.anon.15 = type { ptr, i32, i32 }

@executor_globals = external global %struct._zend_executor_globals, align 8
@.str.24 = private unnamed_addr constant [27 x i8] c"%s object is uninitialized\00", align 1
@.str.25 = private unnamed_addr constant [6 x i8] c"00000\00", align 1
@.str.34 = private unnamed_addr constant [31 x i8] c"There is no active transaction\00", align 1

; Function Attrs: nounwind uwtable
define internal zeroext i1 @pdo_is_in_transaction(ptr noundef %0) #0 {
  %2 = alloca i1, align 1
  %3 = alloca ptr, align 8
  store ptr %0, ptr %3, align 8, !tbaa !63
  %4 = load ptr, ptr %3, align 8, !tbaa !63
  %5 = getelementptr inbounds nuw %struct._pdo_dbh_t, ptr %4, i32 0, i32 0
  %6 = load ptr, ptr %5, align 8, !tbaa !69
  %7 = getelementptr inbounds nuw %struct.pdo_dbh_methods, ptr %6, i32 0, i32 14
  %8 = load ptr, ptr %7, align 8, !tbaa !146
  %9 = icmp ne ptr %8, null
  br i1 %9, label %10, label %18

10:                                               ; preds = %1
  %11 = load ptr, ptr %3, align 8, !tbaa !63
  %12 = getelementptr inbounds nuw %struct._pdo_dbh_t, ptr %11, i32 0, i32 0
  %13 = load ptr, ptr %12, align 8, !tbaa !69
  %14 = getelementptr inbounds nuw %struct.pdo_dbh_methods, ptr %13, i32 0, i32 14
  %15 = load ptr, ptr %14, align 8, !tbaa !146
  %16 = load ptr, ptr %3, align 8, !tbaa !63
  %17 = call zeroext i1 %15(ptr noundef %16)
  store i1 %17, ptr %2, align 1
  br label %25

18:                                               ; preds = %1
  %19 = load ptr, ptr %3, align 8, !tbaa !63
  %20 = getelementptr inbounds nuw %struct._pdo_dbh_t, ptr %19, i32 0, i32 4
  %21 = load i32, ptr %20, align 8
  %22 = lshr i32 %21, 4
  %23 = and i32 %22, 1
  %24 = trunc i32 %23 to i1
  store i1 %24, ptr %2, align 1
  br label %25

25:                                               ; preds = %18, %10
  %26 = load i1, ptr %2, align 1
  ret i1 %26
}

; Function Attrs: inlinehint nounwind uwtable
define internal ptr @php_pdo_dbh_fetch_inner(ptr noundef %0) #8 {
  %2 = alloca ptr, align 8
  store ptr %0, ptr %2, align 8, !tbaa !62
  %3 = load ptr, ptr %2, align 8, !tbaa !62
  %4 = getelementptr inbounds i8, ptr %3, i64 -8
  %5 = getelementptr inbounds nuw %struct._pdo_dbh_object_t, ptr %4, i32 0, i32 0
  %6 = load ptr, ptr %5, align 8, !tbaa !91
  ret ptr %6
}

; Function Attrs: nounwind uwtable
define hidden void @zim_PDO_rollBack(ptr noundef %0, ptr noundef %1) #0 {
  %3 = alloca ptr, align 8
  %4 = alloca ptr, align 8
  %5 = alloca ptr, align 8
  %6 = alloca i32, align 4
  store ptr %0, ptr %3, align 8, !tbaa !75
  store ptr %1, ptr %4, align 8, !tbaa !13
  call void @llvm.lifetime.start.p0(i64 8, ptr %5) #14
  %7 = load ptr, ptr %3, align 8, !tbaa !75
  %8 = getelementptr inbounds nuw %struct._zend_execute_data, ptr %7, i32 0, i32 4
  %9 = getelementptr inbounds nuw %struct._zval_struct, ptr %8, i32 0, i32 0
  %10 = load ptr, ptr %9, align 8, !tbaa !15
  %11 = call ptr @php_pdo_dbh_fetch_inner(ptr noundef %10)
  store ptr %11, ptr %5, align 8, !tbaa !63
  br label %12

12:                                               ; preds = %2
  %13 = load ptr, ptr %3, align 8, !tbaa !75
  %14 = getelementptr inbounds nuw %struct._zend_execute_data, ptr %13, i32 0, i32 4
  %15 = getelementptr inbounds nuw %struct._zval_struct, ptr %14, i32 0, i32 2
  %16 = load i32, ptr %15, align 4, !tbaa !15
  %17 = icmp ne i32 %16, 0
  %18 = xor i1 %17, true
  %19 = xor i1 %18, true
  %20 = zext i1 %19 to i32
  %21 = sext i32 %20 to i64
  %22 = call i64 @llvm.expect.i64(i64 %21, i64 0)
  %23 = icmp ne i64 %22, 0
  br i1 %23, label %24, label %25

24:                                               ; preds = %12
  call void @zend_wrong_parameters_none_error()
  store i32 1, ptr %6, align 4
  br label %98

25:                                               ; preds = %12
  br label %26

26:                                               ; preds = %25
  br label %27

27:                                               ; preds = %26
  %28 = load ptr, ptr %5, align 8, !tbaa !63
  %29 = getelementptr inbounds nuw %struct._pdo_dbh_t, ptr %28, i32 0, i32 15
  %30 = load ptr, ptr %29, align 8, !tbaa !99
  %31 = icmp ne ptr %30, null
  br i1 %31, label %48, label %32

32:                                               ; preds = %27
  %33 = load ptr, ptr %3, align 8, !tbaa !75
  %34 = getelementptr inbounds nuw %struct._zend_execute_data, ptr %33, i32 0, i32 4
  %35 = getelementptr inbounds nuw %struct._zval_struct, ptr %34, i32 0, i32 0
  %36 = load ptr, ptr %35, align 8, !tbaa !15
  %37 = getelementptr inbounds nuw %struct._zend_object, ptr %36, i32 0, i32 3
  %38 = load ptr, ptr %37, align 8, !tbaa !135
  %39 = getelementptr inbounds nuw %struct._zend_class_entry, ptr %38, i32 0, i32 1
  %40 = load ptr, ptr %39, align 8, !tbaa !115
  %41 = getelementptr inbounds nuw %struct._zend_string, ptr %40, i32 0, i32 3
  %42 = getelementptr inbounds [1 x i8], ptr %41, i64 0, i64 0
  call void (ptr, ptr, ...) @zend_throw_error(ptr noundef null, ptr noundef @.str.24, ptr noundef %42)
  br label %43

43:                                               ; preds = %32
  %44 = load ptr, ptr getelementptr inbounds nuw (%struct._zend_executor_globals, ptr @executor_globals, i32 0, i32 54), align 8, !tbaa !74
  %45 = icmp ne ptr %44, null
  call void @llvm.assume(i1 %45)
  store i32 1, ptr %6, align 4
  br label %98

46:                                               ; No predecessors!
  br label %47

47:                                               ; preds = %46
  br label %48

48:                                               ; preds = %47, %27
  %49 = load ptr, ptr %5, align 8, !tbaa !63
  %50 = call zeroext i1 @pdo_is_in_transaction(ptr noundef %49)
  br i1 %50, label %59, label %51

51:                                               ; preds = %48
  %52 = call ptr @php_pdo_get_exception()
  %53 = call ptr (ptr, i64, ptr, ...) @zend_throw_exception_ex(ptr noundef %52, i64 noundef 0, ptr noundef @.str.34)
  br label %54

54:                                               ; preds = %51
  %55 = load ptr, ptr getelementptr inbounds nuw (%struct._zend_executor_globals, ptr @executor_globals, i32 0, i32 54), align 8, !tbaa !74
  %56 = icmp ne ptr %55, null
  call void @llvm.assume(i1 %56)
  store i32 1, ptr %6, align 4
  br label %98

57:                                               ; No predecessors!
  br label %58

58:                                               ; preds = %57
  br label %59

59:                                               ; preds = %58, %48
  %60 = load ptr, ptr %5, align 8, !tbaa !63
  %61 = getelementptr inbounds nuw %struct._pdo_dbh_t, ptr %60, i32 0, i32 0
  %62 = load ptr, ptr %61, align 8, !tbaa !69
  %63 = getelementptr inbounds nuw %struct.pdo_dbh_methods, ptr %62, i32 0, i32 6
  %64 = load ptr, ptr %63, align 8, !tbaa !148
  %65 = load ptr, ptr %5, align 8, !tbaa !63
  %66 = call zeroext i1 %64(ptr noundef %65)
  br i1 %66, label %67, label %81

67:                                               ; preds = %59
  %68 = load ptr, ptr %5, align 8, !tbaa !63
  %69 = getelementptr inbounds nuw %struct._pdo_dbh_t, ptr %68, i32 0, i32 4
  %70 = load i32, ptr %69, align 8
  %71 = and i32 %70, -17
  %72 = or i32 %71, 0
  store i32 %72, ptr %69, align 8
  br label %73

73:                                               ; preds = %67
  br label %74

74:                                               ; preds = %73
  %75 = load ptr, ptr %4, align 8, !tbaa !13
  %76 = getelementptr inbounds nuw %struct._zval_struct, ptr %75, i32 0, i32 1
  store i32 3, ptr %76, align 8, !tbaa !15
  br label %77

77:                                               ; preds = %74
  br label %78

78:                                               ; preds = %77
  store i32 1, ptr %6, align 4
  br label %98

79:                                               ; No predecessors!
  br label %80

80:                                               ; preds = %79
  br label %81

81:                                               ; preds = %80, %59
  %82 = load ptr, ptr %5, align 8, !tbaa !63
  %83 = getelementptr inbounds nuw %struct._pdo_dbh_t, ptr %82, i32 0, i32 7
  %84 = getelementptr inbounds [6 x i8], ptr %83, i64 0, i64 0
  %85 = call i32 @strcmp(ptr noundef %84, ptr noundef @.str.25) #15
  %86 = icmp ne i32 %85, 0
  br i1 %86, label %87, label %89

87:                                               ; preds = %81
  %88 = load ptr, ptr %5, align 8, !tbaa !63
  call void @pdo_handle_error(ptr noundef %88, ptr noundef null)
  br label %89

89:                                               ; preds = %87, %81
  br label %90

90:                                               ; preds = %89
  br label %91

91:                                               ; preds = %90
  %92 = load ptr, ptr %4, align 8, !tbaa !13
  %93 = getelementptr inbounds nuw %struct._zval_struct, ptr %92, i32 0, i32 1
  store i32 2, ptr %93, align 8, !tbaa !15
  br label %94

94:                                               ; preds = %91
  br label %95

95:                                               ; preds = %94
  store i32 1, ptr %6, align 4
  br label %98

96:                                               ; No predecessors!
  br label %97

97:                                               ; preds = %96
  store i32 0, ptr %6, align 4
  br label %98

98:                                               ; preds = %97, %95, %78, %54, %43, %24
  call void @llvm.lifetime.end.p0(i64 8, ptr %5) #14
  %99 = load i32, ptr %6, align 4
  switch i32 %99, label %101 [
    i32 0, label %100
    i32 1, label %100
  ]

100:                                              ; preds = %98, %98
  ret void

101:                                              ; preds = %98
  unreachable
}